Certificate:
    Data:
        Version: 1 (0x0)
        Serial Number: 1 (0x1)
    Signature Algorithm: md5WithRSAEncryption
        Issuer: C=US, ST=Unset, L=Unset, O=Unset, CN=www.example.com
        Validity
            Not Before: Apr 30 20:06:47 2013 GMT
            Not After : Apr 30 20:06:47 2014 GMT
        Subject: C=US, ST=Unset, O=Unset, CN=www.example.com
        Subject Public Key Info:
            Public Key Algorithm: rsaEncryption
                Public-Key: (1024 bit)
                Modulus:
                    00:ba:c3:d1:ae:64:22:cf:be:18:71:99:22:c4:1d:
                    b1:2a:c9:b6:5d:f4:76:58:89:3e:8b:96:0a:a2:cd:
                    9f:17:e7:93:5c:a0:ca:ec:ce:3f:40:24:1b:56:15:
                    75:2f:40:9a:4e:76:d0:a4:37:01:9b:8a:b0:8d:42:
                    6b:90:01:ed:4c:5b:ae:fa:3f:28:46:63:7b:c9:86:
                    66:d8:a5:78:51:fb:47:ae:a6:c2:99:d1:bc:f6:b6:
                    18:cc:2f:62:df:97:b3:d7:c0:66:2c:1c:6f:30:97:
                    84:3e:7d:9f:ba:a1:10:64:3f:19:c0:15:9d:c8:62:
                    f5:54:0c:87:c5:8c:7e:49:0d
                Exponent: 65537 (0x10001)
    Signature Algorithm: md5WithRSAEncryption
         69:50:f9:3c:9e:72:27:c6:a9:93:c9:04:c9:67:dd:e1:fa:51:
         89:2f:b4:1d:26:cf:c7:99:d6:c2:02:df:03:e9:07:67:85:2c:
         03:91:05:0c:98:79:fb:c5:6d:7d:d5:de:95:41:f2:f5:78:93:
         cf:6b:17:38:ac:8d:65:97:50:13:8d:02:f7:11:96:9b:f5:94:
         32:be:e3:be:90:f8:09:af:21:07:17:8f:e8:c6:49:95:a6:f4:
         93:7f:d3:f2:f3:f1:fe:7a:c4:94:2f:f1:9a:52:5e:5a:09:00:
         a9:20:96:e9:58:80:11:da:04:b9:46:88:c0:02:0c:c0:be:c8:
         cd:93
-----BEGIN CERTIFICATE-----
MIICDTCCAXYCAQEwDQYJKoZIhvcNAQEEBQAwVzELMAkGA1UEBhMCVVMxDjAMBgNV
BAgTBVVuc2V0MQ4wDAYDVQQHEwVVbnNldDEOMAwGA1UEChMFVW5zZXQxGDAWBgNV
BAMTD3d3dy5leGFtcGxlLmNvbTAeFw0xMzA0MzAyMDA2NDdaFw0xNDA0MzAyMDA2
NDdaMEcxCzAJBgNVBAYTAlVTMQ4wDAYDVQQIEwVVbnNldDEOMAwGA1UEChMFVW5z
ZXQxGDAWBgNVBAMTD3d3dy5leGFtcGxlLmNvbTCBnzANBgkqhkiG9w0BAQEFAAOB
jQAwgYkCgYEAusPRrmQiz74YcZkixB2xKsm2XfR2WIk+i5YKos2fF+eTXKDK7M4/
QCQbVhV1L0CaTnbQpDcBm4qwjUJrkAHtTFuu+j8oRmN7yYZm2KV4UftHrqbCmdG8
9rYYzC9i35ez18BmLBxvMJeEPn2fuqEQZD8ZwBWdyGL1VAyHxYx+SQ0CAwEAATAN
BgkqhkiG9w0BAQQFAAOBgQBpUPk8nnInxqmTyQTJZ93h+lGJL7QdJs/HmdbCAt8D
6QdnhSwDkQUMmHn7xW191d6VQfL1eJPPaxc4rI1ll1ATjQL3EZab9ZQyvuO+kPgJ
ryEHF4/oxkmVpvSTf9Py8/H+esSUL/GaUl5aCQCpIJbpWIAR2gS5RojAAgzAvsjN
kw==
-----END CERTIFICATE-----
